#include <math.h>
#include <stdio.h>
#include <stdlib.h>
#include <string.h>

int main()
{
	int a=0;
	char s[1000];
	char w[1000];
	int i,j,b;
	scanf("%s",s);
	scanf("%s",w);
    b = strlen(s);
	for(i=0;w[i]!='\0';i++){
		if(w[i]==s[0]){
			for(j=0;s[j]!='\0';j++){
				if(s[j]==w[i+j])a++;
			}
			if(a==b)printf("%d",i);
		}
	}
	return 0;
}

