; ModuleID = '45/1723.c'
source_filename = "45/1723.c"
target datalayout = "e-m:e-p270:32:32-p271:32:32-p272:64:64-i64:64-f80:128-n8:16:32:64-S128"
target triple = "x86_64-pc-linux-gnu"

@.str = private unnamed_addr constant [3 x i8] c"%s\00", align 1
@.str.1 = private unnamed_addr constant [3 x i8] c"%d\00", align 1

; Function Attrs: noinline nounwind uwtable
define dso_local i32 @main() #0 {
  %1 = alloca i32, align 4
  %2 = alloca i32, align 4
  %3 = alloca [1000 x i8], align 16
  %4 = alloca [1000 x i8], align 16
  %5 = alloca i32, align 4
  %6 = alloca i32, align 4
  %7 = alloca i32, align 4
  store i32 0, i32* %1, align 4
  store i32 0, i32* %2, align 4
  %8 = getelementptr inbounds [1000 x i8], [1000 x i8]* %3, i64 0, i64 0
  %9 = call i32 (i8*, ...) @__isoc99_scanf(i8* getelementptr inbounds ([3 x i8], [3 x i8]* @.str, i64 0, i64 0), i8* %8)
  %10 = getelementptr inbounds [1000 x i8], [1000 x i8]* %4, i64 0, i64 0
  %11 = call i32 (i8*, ...) @__isoc99_scanf(i8* getelementptr inbounds ([3 x i8], [3 x i8]* @.str, i64 0, i64 0), i8* %10)
  %12 = getelementptr inbounds [1000 x i8], [1000 x i8]* %3, i64 0, i64 0
  %13 = call i64 @strlen(i8* %12) #3
  %14 = trunc i64 %13 to i32
  store i32 %14, i32* %7, align 4
  store i32 0, i32* %5, align 4
  br label %15

15:                                               ; preds = %70, %0
  %16 = load i32, i32* %5, align 4
  %17 = sext i32 %16 to i64
  %18 = getelementptr inbounds [1000 x i8], [1000 x i8]* %4, i64 0, i64 %17
  %19 = load i8, i8* %18, align 1
  %20 = sext i8 %19 to i32
  %21 = icmp ne i32 %20, 0
  br i1 %21, label %22, label %73

22:                                               ; preds = %15
  %23 = load i32, i32* %5, align 4
  %24 = sext i32 %23 to i64
  %25 = getelementptr inbounds [1000 x i8], [1000 x i8]* %4, i64 0, i64 %24
  %26 = load i8, i8* %25, align 1
  %27 = sext i8 %26 to i32
  %28 = getelementptr inbounds [1000 x i8], [1000 x i8]* %3, i64 0, i64 0
  %29 = load i8, i8* %28, align 16
  %30 = sext i8 %29 to i32
  %31 = icmp eq i32 %27, %30
  br i1 %31, label %32, label %69

32:                                               ; preds = %22
  store i32 0, i32* %6, align 4
  br label %33

33:                                               ; preds = %58, %32
  %34 = load i32, i32* %6, align 4
  %35 = sext i32 %34 to i64
  %36 = getelementptr inbounds [1000 x i8], [1000 x i8]* %3, i64 0, i64 %35
  %37 = load i8, i8* %36, align 1
  %38 = sext i8 %37 to i32
  %39 = icmp ne i32 %38, 0
  br i1 %39, label %40, label %61

40:                                               ; preds = %33
  %41 = load i32, i32* %6, align 4
  %42 = sext i32 %41 to i64
  %43 = getelementptr inbounds [1000 x i8], [1000 x i8]* %3, i64 0, i64 %42
  %44 = load i8, i8* %43, align 1
  %45 = sext i8 %44 to i32
  %46 = load i32, i32* %5, align 4
  %47 = load i32, i32* %6, align 4
  %48 = add nsw i32 %46, %47
  %49 = sext i32 %48 to i64
  %50 = getelementptr inbounds [1000 x i8], [1000 x i8]* %4, i64 0, i64 %49
  %51 = load i8, i8* %50, align 1
  %52 = sext i8 %51 to i32
  %53 = icmp eq i32 %45, %52
  br i1 %53, label %54, label %57

54:                                               ; preds = %40
  %55 = load i32, i32* %2, align 4
  %56 = add nsw i32 %55, 1
  store i32 %56, i32* %2, align 4
  br label %57

57:                                               ; preds = %54, %40
  br label %58

58:                                               ; preds = %57
  %59 = load i32, i32* %6, align 4
  %60 = add nsw i32 %59, 1
  store i32 %60, i32* %6, align 4
  br label %33

61:                                               ; preds = %33
  %62 = load i32, i32* %2, align 4
  %63 = load i32, i32* %7, align 4
  %64 = icmp eq i32 %62, %63
  br i1 %64, label %65, label %68

65:                                               ; preds = %61
  %66 = load i32, i32* %5, align 4
  %67 = call i32 (i8*, ...) @printf(i8* getelementptr inbounds ([3 x i8], [3 x i8]* @.str.1, i64 0, i64 0), i32 %66)
  br label %68

68:                                               ; preds = %65, %61
  br label %69

69:                                               ; preds = %68, %22
  br label %70

70:                                               ; preds = %69
  %71 = load i32, i32* %5, align 4
  %72 = add nsw i32 %71, 1
  store i32 %72, i32* %5, align 4
  br label %15

73:                                               ; preds = %15
  ret i32 0
}

declare dso_local i32 @__isoc99_scanf(i8*, ...) #1

; Function Attrs: nounwind readonly
declare dso_local i64 @strlen(i8*) #2

declare dso_local i32 @printf(i8*, ...) #1


!llvm.module.flags = !{!0}
!llvm.ident = !{!1}

!0 = !{i32 1, !"wchar_size", i32 4}
!1 = !{!"clang version 10.0.0-4ubuntu1 "}
